; Function Attrs: nofree nosync nounwind memory(argmem: readwrite) uwtable
define i32 @Abc_TtCountOnesInCofsQuick_rec(ptr noundef %0, i32 noundef %1, ptr noundef %2) local_unnamed_addr #3 {
  %4 = alloca i64, align 8
  %5 = icmp slt i32 %1, 9
  br i1 %5, label %6, label %54

6:                                                ; preds = %3
  call void @llvm.lifetime.start.p0(i64 8, ptr nonnull %4) #8
  %7 = icmp slt i32 %1, 7
  %8 = add nsw i32 %1, -4
  %9 = shl nuw nsw i32 1, %8
  %10 = select i1 %7, i32 4, i32 %9
  %wide.trip.count = zext nneg i32 %10 to i64
  br label %11

11:                                               ; preds = %6, %11
  %indvars.iv = phi i64 [ 0, %6 ], [ %indvars.iv.next, %11 ]
  %12 = phi i64 [ 0, %6 ], [ %18, %11 ]
  %13 = getelementptr inbounds nuw i8, ptr %0, i64 %indvars.iv
  %14 = load i8, ptr %13, align 1, !tbaa !14
  %15 = zext i8 %14 to i64
  %16 = getelementptr inbounds nuw [256 x [32 x i64]], ptr @Table, i64 0, i64 %15, i64 %indvars.iv
  %17 = load i64, ptr %16, align 8, !tbaa !9
  %18 = add i64 %12, %17
  %indvars.iv.next = add nuw nsw i64 %indvars.iv, 1
  %exitcond.not = icmp eq i64 %indvars.iv.next, %wide.trip.count
  br i1 %exitcond.not, label %19, label %11, !llvm.loop !15

19:                                               ; preds = %11
  %20 = shl nuw i32 %10, 1
  %21 = icmp eq i32 %1, 8
  %22 = lshr i64 %18, 56
  br i1 %21, label %23, label %28

23:                                               ; preds = %19
  %24 = trunc nuw nsw i64 %22 to i32
  %25 = getelementptr inbounds nuw i8, ptr %2, i64 28
  %26 = load i32, ptr %25, align 4, !tbaa !3
  %27 = add nsw i32 %26, %24
  store i32 %27, ptr %25, align 4, !tbaa !3
  br label %28

28:                                               ; preds = %23, %19
  %29 = icmp slt i32 %10, %20
  br i1 %29, label %.lr.ph, label %.preheader

.preheader.loopexit:                              ; preds = %.lr.ph
  %.pre = lshr i64 %38, 56
  br label %.preheader

.preheader:                                       ; preds = %.preheader.loopexit, %28
  %.pre-phi69.in = phi i64 [ %.pre, %.preheader.loopexit ], [ %22, %28 ]
  %.lcssa52 = phi i64 [ %38, %.preheader.loopexit ], [ %18, %28 ]
  %.pre-phi69 = trunc nuw nsw i64 %.pre-phi69.in to i32
  store i64 %.lcssa52, ptr %4, align 8
  %30 = add i32 %1, -1
  %31 = icmp sgt i32 %1, 1
  br i1 %31, label %.lr.ph55.preheader, label %._crit_edge.thread

.lr.ph55.preheader:                               ; preds = %.preheader
  %wide.trip.count66 = zext nneg i32 %30 to i64
  br label %.lr.ph55

.lr.ph:                                           ; preds = %28, %.lr.ph
  %indvars.iv61 = phi i64 [ %indvars.iv.next62, %.lr.ph ], [ %wide.trip.count, %28 ]
  %32 = phi i64 [ %38, %.lr.ph ], [ %18, %28 ]
  %33 = getelementptr inbounds nuw i8, ptr %0, i64 %indvars.iv61
  %34 = load i8, ptr %33, align 1, !tbaa !14
  %35 = zext i8 %34 to i64
  %36 = getelementptr inbounds nuw [256 x [32 x i64]], ptr @Table, i64 0, i64 %35, i64 %indvars.iv61
  %37 = load i64, ptr %36, align 8, !tbaa !9
  %38 = add i64 %32, %37
  %indvars.iv.next62 = add nuw nsw i64 %indvars.iv61, 1
  %39 = trunc nuw i64 %indvars.iv.next62 to i32
  %40 = icmp sgt i32 %20, %39
  br i1 %40, label %.lr.ph, label %.preheader.loopexit, !llvm.loop !16

.lr.ph55:                                         ; preds = %.lr.ph55.preheader, %.lr.ph55
  %indvars.iv63 = phi i64 [ 0, %.lr.ph55.preheader ], [ %indvars.iv.next64, %.lr.ph55 ]
  %41 = getelementptr inbounds nuw i8, ptr %4, i64 %indvars.iv63
  %42 = load i8, ptr %41, align 1, !tbaa !14
  %43 = zext i8 %42 to i32
  %44 = getelementptr inbounds nuw i32, ptr %2, i64 %indvars.iv63
  %45 = load i32, ptr %44, align 4, !tbaa !3
  %46 = add nsw i32 %45, %43
  store i32 %46, ptr %44, align 4, !tbaa !3
  %indvars.iv.next64 = add nuw nsw i64 %indvars.iv63, 1
  %exitcond67.not = icmp eq i64 %indvars.iv.next64, %wide.trip.count66
  br i1 %exitcond67.not, label %._crit_edge, label %.lr.ph55, !llvm.loop !17

._crit_edge:                                      ; preds = %.lr.ph55
  br i1 %21, label %common.ret, label %._crit_edge.thread

._crit_edge.thread:                               ; preds = %.preheader, %._crit_edge
  %47 = sext i32 %30 to i64
  %48 = getelementptr inbounds i8, ptr %4, i64 %47
  %49 = load i8, ptr %48, align 1, !tbaa !14
  %50 = zext i8 %49 to i32
  %51 = getelementptr inbounds i32, ptr %2, i64 %47
  %52 = load i32, ptr %51, align 4, !tbaa !3
  %53 = add nsw i32 %52, %50
  store i32 %53, ptr %51, align 4, !tbaa !3
  br label %common.ret

common.ret:                                       ; preds = %._crit_edge.thread, %._crit_edge
  call void @llvm.lifetime.end.p0(i64 8, ptr nonnull %4) #8
  br label %common.ret74

common.ret74:                                     ; preds = %54, %common.ret
  %common.ret74.op = phi i32 [ %.pre-phi69, %common.ret ], [ %64, %54 ]
  ret i32 %common.ret74.op

54:                                               ; preds = %3
  %55 = add nsw i32 %1, -1
  %56 = tail call i32 @Abc_TtCountOnesInCofsQuick_rec(ptr noundef %0, i32 noundef %55, ptr noundef %2)
  %57 = add nsw i32 %1, -7
  %58 = shl nuw i32 1, %57
  %59 = sext i32 %58 to i64
  %60 = getelementptr inbounds i64, ptr %0, i64 %59
  %61 = tail call i32 @Abc_TtCountOnesInCofsQuick_rec(ptr noundef nonnull %60, i32 noundef %55, ptr noundef %2)
  %62 = zext nneg i32 %55 to i64
  %63 = getelementptr inbounds nuw i32, ptr %2, i64 %62
  store i32 %56, ptr %63, align 4, !tbaa !3
  %64 = add nsw i32 %61, %56
  br label %common.ret74
}